; Function Attrs: null_pointer_is_valid sspstrong uwtable
define hidden range(i32 0, 25) i32 @Dot11DecryptGetKCK(ptr noundef %0, ptr noundef writeonly captures(address_is_null) %1) local_unnamed_addr #0 {
  %3 = icmp ne ptr %0, null
  %4 = icmp ne ptr %1, null
  %or.cond = and i1 %3, %4
  br i1 %or.cond, label %5, label %Dot11DecryptGetKckLen.exit

5:                                                ; preds = %2
  %6 = getelementptr inbounds nuw i8, ptr %0, i64 56
  store ptr %6, ptr %1, align 8
  %7 = getelementptr inbounds nuw i8, ptr %0, i64 146
  %8 = load i8, ptr %7, align 2
  %switch.tableidx = add i8 %8, -1
  %9 = icmp ult i8 %switch.tableidx, 18
  br i1 %9, label %switch.hole_check, label %10

10:                                               ; preds = %switch.hole_check, %5
  tail call void (ptr, i32, ptr, i64, ptr, ptr, ...) @ws_log_full(ptr noundef nonnull @.str, i32 noundef 5, ptr noundef nonnull @.str.1, i64 noundef 2385, ptr noundef nonnull @__func__.Dot11DecryptGetKckLen, ptr noundef nonnull @.str.49)
  br label %Dot11DecryptGetKckLen.exit

switch.hole_check:                                ; preds = %5
  %switch.maskindex = zext nneg i8 %switch.tableidx to i32
  %switch.shifted = lshr i32 138687, %switch.maskindex
  %switch.lobit = trunc i32 %switch.shifted to i1
  br i1 %switch.lobit, label %switch.lookup, label %10

switch.lookup:                                    ; preds = %switch.hole_check
  %11 = zext nneg i8 %switch.tableidx to i64
  %switch.gep = getelementptr inbounds nuw [18 x i32], ptr @switch.table.Dot11DecryptGetKCK, i64 0, i64 %11
  %switch.load = load i32, ptr %switch.gep, align 4
  br label %Dot11DecryptGetKckLen.exit

Dot11DecryptGetKckLen.exit:                       ; preds = %switch.lookup, %10, %2
  %.0 = phi i32 [ 0, %2 ], [ 0, %10 ], [ %switch.load, %switch.lookup ]
  ret i32 %.0
}